target datalayout = "e-m:e-p270:32:32-p271:32:32-p272:64:64-i64:64-i128:128-f80:128-n8:16:32:64-S128"
target triple = "x86_64-pc-linux-gnu"

%struct.AVFilterPad = type { ptr, i32, i32, %union.anon, ptr, ptr, ptr }
%union.anon = type { ptr }
%struct.AVFilterContext = type { ptr, ptr, ptr, ptr, ptr, i32, ptr, ptr, i32, ptr, ptr, i32, i32, ptr, ptr, ptr, ptr, i32, ptr, i32, i32 }
%struct.BM3DContext = type { ptr, float, i32, i32, i32, i32, i32, float, float, i32, i32, i32, i32, i32, i32, [4 x i32], [4 x i32], i32, i32, [32 x %struct.SliceContext], %struct.FFFrameSync, i32, ptr, ptr, ptr, ptr }
%struct.SliceContext = type { ptr, ptr, ptr, ptr, ptr, ptr, ptr, ptr, ptr, ptr, ptr, ptr, ptr, ptr, ptr, ptr, ptr, ptr, ptr, [256 x %struct.PosPairCode], i32, ptr }
%struct.PosPairCode = type { double, i32, i32 }
%struct.FFFrameSync = type { ptr, ptr, i32, %struct.AVRational, i64, ptr, ptr, i32, i32, i8, i8, ptr, i32, i32, i32, i32 }
%struct.AVRational = type { i32, i32 }
%struct.AVFilterLink = type { ptr, ptr, ptr, ptr, i32, i32, i32, i32, %struct.AVRational, i32, i32, i32, %struct.AVChannelLayout, %struct.AVRational, ptr, i32, %struct.AVFilterFormatsConfig, %struct.AVFilterFormatsConfig }
%struct.AVChannelLayout = type { i32, i32, %union.anon.1, ptr }
%union.anon.1 = type { i64 }
%struct.AVFilterFormatsConfig = type { ptr, ptr, ptr, ptr, ptr }
%struct.FilterLink = type { %struct.AVFilterLink, ptr, i64, i64, i32, i32, i64, i64, i64, i64, %struct.AVRational, ptr }
%struct.FFFrameSyncIn = type { i32, i32, %struct.AVRational, ptr, ptr, i64, i64, i8, i8, i32, i32 }

@.str.3 = private unnamed_addr constant [116 x i8] c"First input link %s parameters (size %dx%d) do not match the corresponding second input link %s parameters (%dx%d) \00", align 1

; Function Attrs: inlinehint nounwind uwtable
define internal ptr @ff_filter_link(ptr noundef %0) #3 {
  %2 = alloca ptr, align 8
  store ptr %0, ptr %2, align 8, !tbaa !52
  %3 = load ptr, ptr %2, align 8, !tbaa !52
  ret ptr %3
}

; Function Attrs: nounwind uwtable
define internal i32 @config_output(ptr noundef %0) #1 {
  %2 = alloca i32, align 4
  %3 = alloca ptr, align 8
  %4 = alloca ptr, align 8
  %5 = alloca ptr, align 8
  %6 = alloca ptr, align 8
  %7 = alloca ptr, align 8
  %8 = alloca ptr, align 8
  %9 = alloca ptr, align 8
  %10 = alloca ptr, align 8
  %11 = alloca i32, align 4
  %12 = alloca i32, align 4
  store ptr %0, ptr %3, align 8, !tbaa !52
  call void @llvm.lifetime.start.p0(i64 8, ptr %4) #12
  %13 = load ptr, ptr %3, align 8, !tbaa !52
  %14 = call ptr @ff_filter_link(ptr noundef %13)
  store ptr %14, ptr %4, align 8, !tbaa !56
  call void @llvm.lifetime.start.p0(i64 8, ptr %5) #12
  %15 = load ptr, ptr %3, align 8, !tbaa !52
  %16 = getelementptr inbounds nuw %struct.AVFilterLink, ptr %15, i32 0, i32 0
  %17 = load ptr, ptr %16, align 8, !tbaa !58
  store ptr %17, ptr %5, align 8, !tbaa !4
  call void @llvm.lifetime.start.p0(i64 8, ptr %6) #12
  %18 = load ptr, ptr %5, align 8, !tbaa !4
  %19 = getelementptr inbounds nuw %struct.AVFilterContext, ptr %18, i32 0, i32 9
  %20 = load ptr, ptr %19, align 8, !tbaa !9
  store ptr %20, ptr %6, align 8, !tbaa !22
  call void @llvm.lifetime.start.p0(i64 8, ptr %7) #12
  %21 = load ptr, ptr %5, align 8, !tbaa !4
  %22 = getelementptr inbounds nuw %struct.AVFilterContext, ptr %21, i32 0, i32 4
  %23 = load ptr, ptr %22, align 8, !tbaa !54
  %24 = getelementptr inbounds ptr, ptr %23, i64 0
  %25 = load ptr, ptr %24, align 8, !tbaa !52
  store ptr %25, ptr %7, align 8, !tbaa !52
  call void @llvm.lifetime.start.p0(i64 8, ptr %8) #12
  %26 = load ptr, ptr %7, align 8, !tbaa !52
  %27 = call ptr @ff_filter_link(ptr noundef %26)
  store ptr %27, ptr %8, align 8, !tbaa !56
  call void @llvm.lifetime.start.p0(i64 8, ptr %9) #12
  call void @llvm.lifetime.start.p0(i64 8, ptr %10) #12
  call void @llvm.lifetime.start.p0(i64 4, ptr %11) #12
  %28 = load ptr, ptr %6, align 8, !tbaa !22
  %29 = getelementptr inbounds nuw %struct.BM3DContext, ptr %28, i32 0, i32 10
  %30 = load i32, ptr %29, align 4, !tbaa !34
  %31 = icmp ne i32 %30, 0
  br i1 %31, label %32, label %80

32:                                               ; preds = %1
  %33 = load ptr, ptr %5, align 8, !tbaa !4
  %34 = getelementptr inbounds nuw %struct.AVFilterContext, ptr %33, i32 0, i32 4
  %35 = load ptr, ptr %34, align 8, !tbaa !54
  %36 = getelementptr inbounds ptr, ptr %35, i64 1
  %37 = load ptr, ptr %36, align 8, !tbaa !52
  store ptr %37, ptr %9, align 8, !tbaa !52
  %38 = load ptr, ptr %7, align 8, !tbaa !52
  %39 = getelementptr inbounds nuw %struct.AVFilterLink, ptr %38, i32 0, i32 6
  %40 = load i32, ptr %39, align 8, !tbaa !65
  %41 = load ptr, ptr %9, align 8, !tbaa !52
  %42 = getelementptr inbounds nuw %struct.AVFilterLink, ptr %41, i32 0, i32 6
  %43 = load i32, ptr %42, align 8, !tbaa !65
  %44 = icmp ne i32 %40, %43
  br i1 %44, label %53, label %45

45:                                               ; preds = %32
  %46 = load ptr, ptr %7, align 8, !tbaa !52
  %47 = getelementptr inbounds nuw %struct.AVFilterLink, ptr %46, i32 0, i32 7
  %48 = load i32, ptr %47, align 4, !tbaa !66
  %49 = load ptr, ptr %9, align 8, !tbaa !52
  %50 = getelementptr inbounds nuw %struct.AVFilterLink, ptr %49, i32 0, i32 7
  %51 = load i32, ptr %50, align 4, !tbaa !66
  %52 = icmp ne i32 %48, %51
  br i1 %52, label %53, label %79

53:                                               ; preds = %45, %32
  %54 = load ptr, ptr %5, align 8, !tbaa !4
  %55 = load ptr, ptr %5, align 8, !tbaa !4
  %56 = getelementptr inbounds nuw %struct.AVFilterContext, ptr %55, i32 0, i32 3
  %57 = load ptr, ptr %56, align 8, !tbaa !67
  %58 = getelementptr inbounds %struct.AVFilterPad, ptr %57, i64 0
  %59 = getelementptr inbounds nuw %struct.AVFilterPad, ptr %58, i32 0, i32 0
  %60 = load ptr, ptr %59, align 8, !tbaa !41
  %61 = load ptr, ptr %7, align 8, !tbaa !52
  %62 = getelementptr inbounds nuw %struct.AVFilterLink, ptr %61, i32 0, i32 6
  %63 = load i32, ptr %62, align 8, !tbaa !65
  %64 = load ptr, ptr %7, align 8, !tbaa !52
  %65 = getelementptr inbounds nuw %struct.AVFilterLink, ptr %64, i32 0, i32 7
  %66 = load i32, ptr %65, align 4, !tbaa !66
  %67 = load ptr, ptr %5, align 8, !tbaa !4
  %68 = getelementptr inbounds nuw %struct.AVFilterContext, ptr %67, i32 0, i32 3
  %69 = load ptr, ptr %68, align 8, !tbaa !67
  %70 = getelementptr inbounds %struct.AVFilterPad, ptr %69, i64 1
  %71 = getelementptr inbounds nuw %struct.AVFilterPad, ptr %70, i32 0, i32 0
  %72 = load ptr, ptr %71, align 8, !tbaa !41
  %73 = load ptr, ptr %9, align 8, !tbaa !52
  %74 = getelementptr inbounds nuw %struct.AVFilterLink, ptr %73, i32 0, i32 6
  %75 = load i32, ptr %74, align 8, !tbaa !65
  %76 = load ptr, ptr %9, align 8, !tbaa !52
  %77 = getelementptr inbounds nuw %struct.AVFilterLink, ptr %76, i32 0, i32 7
  %78 = load i32, ptr %77, align 4, !tbaa !66
  call void (ptr, i32, ptr, ...) @av_log(ptr noundef %54, i32 noundef 16, ptr noundef @.str.3, ptr noundef %60, i32 noundef %63, i32 noundef %66, ptr noundef %72, i32 noundef %75, i32 noundef %78)
  store i32 -22, ptr %2, align 4
  store i32 1, ptr %12, align 4
  br label %159

79:                                               ; preds = %45
  br label %80

80:                                               ; preds = %79, %1
  %81 = load ptr, ptr %7, align 8, !tbaa !52
  %82 = getelementptr inbounds nuw %struct.AVFilterLink, ptr %81, i32 0, i32 6
  %83 = load i32, ptr %82, align 8, !tbaa !65
  %84 = load ptr, ptr %3, align 8, !tbaa !52
  %85 = getelementptr inbounds nuw %struct.AVFilterLink, ptr %84, i32 0, i32 6
  store i32 %83, ptr %85, align 8, !tbaa !65
  %86 = load ptr, ptr %7, align 8, !tbaa !52
  %87 = getelementptr inbounds nuw %struct.AVFilterLink, ptr %86, i32 0, i32 7
  %88 = load i32, ptr %87, align 4, !tbaa !66
  %89 = load ptr, ptr %3, align 8, !tbaa !52
  %90 = getelementptr inbounds nuw %struct.AVFilterLink, ptr %89, i32 0, i32 7
  store i32 %88, ptr %90, align 4, !tbaa !66
  %91 = load ptr, ptr %3, align 8, !tbaa !52
  %92 = getelementptr inbounds nuw %struct.AVFilterLink, ptr %91, i32 0, i32 13
  %93 = load ptr, ptr %7, align 8, !tbaa !52
  %94 = getelementptr inbounds nuw %struct.AVFilterLink, ptr %93, i32 0, i32 13
  call void @llvm.memcpy.p0.p0.i64(ptr align 8 %92, ptr align 8 %94, i64 8, i1 false), !tbaa.struct !68
  %95 = load ptr, ptr %3, align 8, !tbaa !52
  %96 = getelementptr inbounds nuw %struct.AVFilterLink, ptr %95, i32 0, i32 8
  %97 = load ptr, ptr %7, align 8, !tbaa !52
  %98 = getelementptr inbounds nuw %struct.AVFilterLink, ptr %97, i32 0, i32 8
  call void @llvm.memcpy.p0.p0.i64(ptr align 8 %96, ptr align 8 %98, i64 8, i1 false), !tbaa.struct !68
  %99 = load ptr, ptr %4, align 8, !tbaa !56
  %100 = getelementptr inbounds nuw %struct.FilterLink, ptr %99, i32 0, i32 10
  %101 = load ptr, ptr %8, align 8, !tbaa !56
  %102 = getelementptr inbounds nuw %struct.FilterLink, ptr %101, i32 0, i32 10
  call void @llvm.memcpy.p0.p0.i64(ptr align 8 %100, ptr align 8 %102, i64 8, i1 false), !tbaa.struct !68
  %103 = load ptr, ptr %6, align 8, !tbaa !22
  %104 = getelementptr inbounds nuw %struct.BM3DContext, ptr %103, i32 0, i32 10
  %105 = load i32, ptr %104, align 4, !tbaa !34
  %106 = icmp ne i32 %105, 0
  br i1 %106, label %108, label %107

107:                                              ; preds = %80
  store i32 0, ptr %2, align 4
  store i32 1, ptr %12, align 4
  br label %159

108:                                              ; preds = %80
  %109 = load ptr, ptr %6, align 8, !tbaa !22
  %110 = getelementptr inbounds nuw %struct.BM3DContext, ptr %109, i32 0, i32 20
  %111 = load ptr, ptr %5, align 8, !tbaa !4
  %112 = call i32 @ff_framesync_init(ptr noundef %110, ptr noundef %111, i32 noundef 2)
  store i32 %112, ptr %11, align 4, !tbaa !43
  %113 = icmp slt i32 %112, 0
  br i1 %113, label %114, label %116

114:                                              ; preds = %108
  %115 = load i32, ptr %11, align 4, !tbaa !43
  store i32 %115, ptr %2, align 4
  store i32 1, ptr %12, align 4
  br label %159

116:                                              ; preds = %108
  %117 = load ptr, ptr %6, align 8, !tbaa !22
  %118 = getelementptr inbounds nuw %struct.BM3DContext, ptr %117, i32 0, i32 20
  %119 = getelementptr inbounds nuw %struct.FFFrameSync, ptr %118, i32 0, i32 11
  %120 = load ptr, ptr %119, align 8, !tbaa !69
  store ptr %120, ptr %10, align 8, !tbaa !70
  %121 = load ptr, ptr %10, align 8, !tbaa !70
  %122 = getelementptr inbounds %struct.FFFrameSyncIn, ptr %121, i64 0
  %123 = getelementptr inbounds nuw %struct.FFFrameSyncIn, ptr %122, i32 0, i32 2
  %124 = load ptr, ptr %7, align 8, !tbaa !52
  %125 = getelementptr inbounds nuw %struct.AVFilterLink, ptr %124, i32 0, i32 13
  call void @llvm.memcpy.p0.p0.i64(ptr align 8 %123, ptr align 8 %125, i64 8, i1 false), !tbaa.struct !68
  %126 = load ptr, ptr %10, align 8, !tbaa !70
  %127 = getelementptr inbounds %struct.FFFrameSyncIn, ptr %126, i64 1
  %128 = getelementptr inbounds nuw %struct.FFFrameSyncIn, ptr %127, i32 0, i32 2
  %129 = load ptr, ptr %9, align 8, !tbaa !52
  %130 = getelementptr inbounds nuw %struct.AVFilterLink, ptr %129, i32 0, i32 13
  call void @llvm.memcpy.p0.p0.i64(ptr align 8 %128, ptr align 8 %130, i64 8, i1 false), !tbaa.struct !68
  %131 = load ptr, ptr %10, align 8, !tbaa !70
  %132 = getelementptr inbounds %struct.FFFrameSyncIn, ptr %131, i64 0
  %133 = getelementptr inbounds nuw %struct.FFFrameSyncIn, ptr %132, i32 0, i32 9
  store i32 1, ptr %133, align 4, !tbaa !71
  %134 = load ptr, ptr %10, align 8, !tbaa !70
  %135 = getelementptr inbounds %struct.FFFrameSyncIn, ptr %134, i64 0
  %136 = getelementptr inbounds nuw %struct.FFFrameSyncIn, ptr %135, i32 0, i32 0
  store i32 0, ptr %136, align 8, !tbaa !73
  %137 = load ptr, ptr %10, align 8, !tbaa !70
  %138 = getelementptr inbounds %struct.FFFrameSyncIn, ptr %137, i64 0
  %139 = getelementptr inbounds nuw %struct.FFFrameSyncIn, ptr %138, i32 0, i32 1
  store i32 0, ptr %139, align 4, !tbaa !74
  %140 = load ptr, ptr %10, align 8, !tbaa !70
  %141 = getelementptr inbounds %struct.FFFrameSyncIn, ptr %140, i64 1
  %142 = getelementptr inbounds nuw %struct.FFFrameSyncIn, ptr %141, i32 0, i32 9
  store i32 1, ptr %142, align 4, !tbaa !71
  %143 = load ptr, ptr %10, align 8, !tbaa !70
  %144 = getelementptr inbounds %struct.FFFrameSyncIn, ptr %143, i64 1
  %145 = getelementptr inbounds nuw %struct.FFFrameSyncIn, ptr %144, i32 0, i32 0
  store i32 0, ptr %145, align 8, !tbaa !73
  %146 = load ptr, ptr %10, align 8, !tbaa !70
  %147 = getelementptr inbounds %struct.FFFrameSyncIn, ptr %146, i64 1
  %148 = getelementptr inbounds nuw %struct.FFFrameSyncIn, ptr %147, i32 0, i32 1
  store i32 0, ptr %148, align 4, !tbaa !74
  %149 = load ptr, ptr %6, align 8, !tbaa !22
  %150 = load ptr, ptr %6, align 8, !tbaa !22
  %151 = getelementptr inbounds nuw %struct.BM3DContext, ptr %150, i32 0, i32 20
  %152 = getelementptr inbounds nuw %struct.FFFrameSync, ptr %151, i32 0, i32 6
  store ptr %149, ptr %152, align 8, !tbaa !75
  %153 = load ptr, ptr %6, align 8, !tbaa !22
  %154 = getelementptr inbounds nuw %struct.BM3DContext, ptr %153, i32 0, i32 20
  %155 = getelementptr inbounds nuw %struct.FFFrameSync, ptr %154, i32 0, i32 5
  store ptr @process_frame, ptr %155, align 8, !tbaa !76
  %156 = load ptr, ptr %6, align 8, !tbaa !22
  %157 = getelementptr inbounds nuw %struct.BM3DContext, ptr %156, i32 0, i32 20
  %158 = call i32 @ff_framesync_configure(ptr noundef %157)
  store i32 %158, ptr %2, align 4
  store i32 1, ptr %12, align 4
  br label %159

159:                                              ; preds = %116, %114, %107, %53
  call void @llvm.lifetime.end.p0(i64 4, ptr %11) #12
  call void @llvm.lifetime.end.p0(i64 8, ptr %10) #12
  call void @llvm.lifetime.end.p0(i64 8, ptr %9) #12
  call void @llvm.lifetime.end.p0(i64 8, ptr %8) #12
  call void @llvm.lifetime.end.p0(i64 8, ptr %7) #12
  call void @llvm.lifetime.end.p0(i64 8, ptr %6) #12
  call void @llvm.lifetime.end.p0(i64 8, ptr %5) #12
  call void @llvm.lifetime.end.p0(i64 8, ptr %4) #12
  %160 = load i32, ptr %2, align 4
  ret i32 %160
}